target datalayout = "e-m:e-p270:32:32-p271:32:32-p272:64:64-i64:64-i128:128-f80:128-n8:16:32:64-S128"
target triple = "x86_64-pc-linux-gnu"

%struct.raxNode = type { i32, [0 x i8] }

@raxDebugMsg = internal global i32 1, align 4
@.str.10 = private unnamed_addr constant [2 x i8] c"\0A\00", align 1
@.str.12 = private unnamed_addr constant [39 x i8] c"%s: %p [%.*s] key:%u size:%u children:\00", align 1
@.str.13 = private unnamed_addr constant [4 x i8] c"%p \00", align 1
@stdout = external global ptr, align 8

; Function Attrs: nounwind uwtable
define dso_local void @raxDebugShowNode(ptr noundef %0, ptr noundef %1) #0 {
  %3 = alloca ptr, align 8
  %4 = alloca ptr, align 8
  %5 = alloca i32, align 4
  %6 = alloca ptr, align 8
  %7 = alloca ptr, align 8
  store ptr %0, ptr %3, align 8, !tbaa !24
  store ptr %1, ptr %4, align 8, !tbaa !11
  %8 = load i32, ptr @raxDebugMsg, align 4, !tbaa !5
  %9 = icmp eq i32 %8, 0
  br i1 %9, label %10, label %11

10:                                               ; preds = %2
  br label %123

11:                                               ; preds = %2
  %12 = load ptr, ptr %3, align 8, !tbaa !24
  %13 = load ptr, ptr %4, align 8, !tbaa !11
  %14 = load ptr, ptr %4, align 8, !tbaa !11
  %15 = load i32, ptr %14, align 4
  %16 = lshr i32 %15, 3
  %17 = load ptr, ptr %4, align 8, !tbaa !11
  %18 = getelementptr inbounds nuw %struct.raxNode, ptr %17, i32 0, i32 1
  %19 = getelementptr inbounds [0 x i8], ptr %18, i64 0, i64 0
  %20 = load ptr, ptr %4, align 8, !tbaa !11
  %21 = load i32, ptr %20, align 4
  %22 = and i32 %21, 1
  %23 = load ptr, ptr %4, align 8, !tbaa !11
  %24 = load i32, ptr %23, align 4
  %25 = lshr i32 %24, 3
  %26 = call i32 (ptr, ...) @printf(ptr noundef @.str.12, ptr noundef %12, ptr noundef %13, i32 noundef %16, ptr noundef %19, i32 noundef %22, i32 noundef %25)
  call void @llvm.lifetime.start.p0(i64 4, ptr %5) #13
  %27 = load ptr, ptr %4, align 8, !tbaa !11
  %28 = load i32, ptr %27, align 4
  %29 = lshr i32 %28, 2
  %30 = and i32 %29, 1
  %31 = icmp ne i32 %30, 0
  br i1 %31, label %32, label %33

32:                                               ; preds = %11
  br label %37

33:                                               ; preds = %11
  %34 = load ptr, ptr %4, align 8, !tbaa !11
  %35 = load i32, ptr %34, align 4
  %36 = lshr i32 %35, 3
  br label %37

37:                                               ; preds = %33, %32
  %38 = phi i32 [ 1, %32 ], [ %36, %33 ]
  store i32 %38, ptr %5, align 4, !tbaa !5
  call void @llvm.lifetime.start.p0(i64 8, ptr %6) #13
  %39 = load ptr, ptr %4, align 8, !tbaa !11
  %40 = load ptr, ptr %4, align 8, !tbaa !11
  %41 = load i32, ptr %40, align 4
  %42 = lshr i32 %41, 3
  %43 = zext i32 %42 to i64
  %44 = add i64 4, %43
  %45 = load ptr, ptr %4, align 8, !tbaa !11
  %46 = load i32, ptr %45, align 4
  %47 = lshr i32 %46, 3
  %48 = add nsw i32 %47, 4
  %49 = sext i32 %48 to i64
  %50 = urem i64 %49, 8
  %51 = sub i64 8, %50
  %52 = and i64 %51, 7
  %53 = add i64 %44, %52
  %54 = load ptr, ptr %4, align 8, !tbaa !11
  %55 = load i32, ptr %54, align 4
  %56 = lshr i32 %55, 2
  %57 = and i32 %56, 1
  %58 = icmp ne i32 %57, 0
  br i1 %58, label %59, label %60

59:                                               ; preds = %37
  br label %66

60:                                               ; preds = %37
  %61 = load ptr, ptr %4, align 8, !tbaa !11
  %62 = load i32, ptr %61, align 4
  %63 = lshr i32 %62, 3
  %64 = zext i32 %63 to i64
  %65 = mul i64 8, %64
  br label %66

66:                                               ; preds = %60, %59
  %67 = phi i64 [ 8, %59 ], [ %65, %60 ]
  %68 = add i64 %53, %67
  %69 = load ptr, ptr %4, align 8, !tbaa !11
  %70 = load i32, ptr %69, align 4
  %71 = and i32 %70, 1
  %72 = icmp ne i32 %71, 0
  br i1 %72, label %73, label %80

73:                                               ; preds = %66
  %74 = load ptr, ptr %4, align 8, !tbaa !11
  %75 = load i32, ptr %74, align 4
  %76 = lshr i32 %75, 1
  %77 = and i32 %76, 1
  %78 = icmp ne i32 %77, 0
  %79 = xor i1 %78, true
  br label %80

80:                                               ; preds = %73, %66
  %81 = phi i1 [ false, %66 ], [ %79, %73 ]
  %82 = zext i1 %81 to i32
  %83 = sext i32 %82 to i64
  %84 = mul i64 %83, 8
  %85 = add i64 %68, %84
  %86 = getelementptr inbounds nuw i8, ptr %39, i64 %85
  %87 = getelementptr inbounds i8, ptr %86, i64 -8
  %88 = load ptr, ptr %4, align 8, !tbaa !11
  %89 = load i32, ptr %88, align 4
  %90 = and i32 %89, 1
  %91 = icmp ne i32 %90, 0
  br i1 %91, label %92, label %99

92:                                               ; preds = %80
  %93 = load ptr, ptr %4, align 8, !tbaa !11
  %94 = load i32, ptr %93, align 4
  %95 = lshr i32 %94, 1
  %96 = and i32 %95, 1
  %97 = icmp ne i32 %96, 0
  %98 = xor i1 %97, true
  br label %99

99:                                               ; preds = %92, %80
  %100 = phi i1 [ false, %80 ], [ %98, %92 ]
  %101 = select i1 %100, i64 8, i64 0
  %102 = sub i64 0, %101
  %103 = getelementptr inbounds i8, ptr %87, i64 %102
  %104 = load i32, ptr %5, align 4, !tbaa !5
  %105 = sub nsw i32 %104, 1
  %106 = sext i32 %105 to i64
  %107 = sub i64 0, %106
  %108 = getelementptr inbounds ptr, ptr %103, i64 %107
  store ptr %108, ptr %6, align 8, !tbaa !18
  br label %109

109:                                              ; preds = %113, %99
  %110 = load i32, ptr %5, align 4, !tbaa !5
  %111 = add nsw i32 %110, -1
  store i32 %111, ptr %5, align 4, !tbaa !5
  %112 = icmp ne i32 %110, 0
  br i1 %112, label %113, label %119

113:                                              ; preds = %109
  call void @llvm.lifetime.start.p0(i64 8, ptr %7) #13
  %114 = load ptr, ptr %6, align 8, !tbaa !18
  call void @llvm.memcpy.p0.p0.i64(ptr align 8 %7, ptr align 8 %114, i64 8, i1 false)
  %115 = load ptr, ptr %6, align 8, !tbaa !18
  %116 = getelementptr inbounds nuw ptr, ptr %115, i32 1
  store ptr %116, ptr %6, align 8, !tbaa !18
  %117 = load ptr, ptr %7, align 8, !tbaa !11
  %118 = call i32 (ptr, ...) @printf(ptr noundef @.str.13, ptr noundef %117)
  call void @llvm.lifetime.end.p0(i64 8, ptr %7) #13
  br label %109, !llvm.loop !65

119:                                              ; preds = %109
  %120 = call i32 (ptr, ...) @printf(ptr noundef @.str.10)
  %121 = load ptr, ptr @stdout, align 8, !tbaa !63
  %122 = call i32 @fflush(ptr noundef %121)
  call void @llvm.lifetime.end.p0(i64 8, ptr %6) #13
  call void @llvm.lifetime.end.p0(i64 4, ptr %5) #13
  br label %123

123:                                              ; preds = %119, %10
  ret void
}