; Function Attrs: nofree nounwind uwtable
define dso_local void @raxDebugShowNode(ptr noundef %0, ptr noundef %1) local_unnamed_addr #20 {
  %3 = load i32, ptr @raxDebugMsg, align 4, !tbaa !5
  %4 = icmp eq i32 %3, 0
  br i1 %4, label %42, label %5

5:                                                ; preds = %2
  %6 = load i32, ptr %1, align 4
  %7 = lshr i32 %6, 3
  %8 = getelementptr inbounds nuw i8, ptr %1, i64 4
  %9 = and i32 %6, 1
  %10 = tail call i32 (ptr, ...) @printf(ptr noundef nonnull dereferenceable(1) @.str.12, ptr noundef %0, ptr noundef nonnull %1, i32 noundef %7, ptr noundef nonnull %8, i32 noundef %9, i32 noundef %7)
  %11 = load i32, ptr %1, align 4
  %12 = and i32 %11, 4
  %.not = icmp eq i32 %12, 0
  %13 = lshr i32 %11, 3
  %spec.select = select i1 %.not, i32 %13, i32 1
  %.not2729 = icmp eq i32 %spec.select, 0
  br i1 %.not2729, label %._crit_edge, label %.lr.ph.preheader

.lr.ph.preheader:                                 ; preds = %5
  %14 = zext nneg i32 %13 to i64
  %15 = getelementptr inbounds nuw i8, ptr %1, i64 %14
  %16 = getelementptr inbounds nuw i8, ptr %15, i64 4
  %17 = xor i32 %13, 3
  %.neg = add nuw nsw i32 %17, 1
  %18 = and i32 %.neg, 7
  %19 = zext nneg i32 %18 to i64
  %20 = getelementptr inbounds nuw i8, ptr %16, i64 %19
  %21 = shl nuw nsw i64 %14, 3
  %22 = select i1 %.not, i64 %21, i64 8
  %23 = getelementptr inbounds nuw i8, ptr %20, i64 %22
  %24 = and i32 %11, 1
  %.not23 = icmp eq i32 %24, 0
  %25 = shl i32 %11, 2
  %26 = and i32 %25, 8
  %27 = xor i32 %26, 8
  %narrow28 = select i1 %.not23, i32 0, i32 %27
  %28 = zext nneg i32 %narrow28 to i64
  %29 = getelementptr inbounds nuw i8, ptr %23, i64 %28
  %30 = getelementptr inbounds i8, ptr %29, i64 -8
  %31 = sub nsw i64 0, %28
  %32 = getelementptr inbounds i8, ptr %30, i64 %31
  %narrow = sub nsw i32 1, %spec.select
  %33 = sext i32 %narrow to i64
  %34 = getelementptr inbounds ptr, ptr %32, i64 %33
  br label %.lr.ph

.lr.ph:                                           ; preds = %.lr.ph.preheader, %.lr.ph
  %.031 = phi i32 [ %35, %.lr.ph ], [ %spec.select, %.lr.ph.preheader ]
  %.02130 = phi ptr [ %36, %.lr.ph ], [ %34, %.lr.ph.preheader ]
  %35 = add nsw i32 %.031, -1
  %.0.copyload = load ptr, ptr %.02130, align 8
  %36 = getelementptr inbounds nuw i8, ptr %.02130, i64 8
  %37 = tail call i32 (ptr, ...) @printf(ptr noundef nonnull dereferenceable(1) @.str.13, ptr noundef %.0.copyload)
  %.not27 = icmp eq i32 %35, 0
  br i1 %.not27, label %._crit_edge, label %.lr.ph, !llvm.loop !52

._crit_edge:                                      ; preds = %.lr.ph, %5
  %38 = load ptr, ptr @stdout, align 8, !tbaa !48
  %39 = tail call noundef i32 @putc(i32 noundef 10, ptr noundef %38)
  %40 = load ptr, ptr @stdout, align 8, !tbaa !48
  %41 = tail call i32 @fflush(ptr noundef %40)
  br label %42

42:                                               ; preds = %2, %._crit_edge
  ret void
}